target datalayout = "e-m:e-p270:32:32-p271:32:32-p272:64:64-i64:64-i128:128-f80:128-n8:16:32:64-S128"
target triple = "x86_64-pc-linux-gnu"

%"struct.OpenImageIO::v3_1_0::TypeDesc" = type { i8, i8, i8, i8, i32 }
%"class.OpenImageIO::v3_1_0::HeifInput" = type { %"class.OpenImageIO::v3_1_0::ImageInput", %"class.std::__cxx11::basic_string", i32, i32, i32, i8, i8, i8, i8, %"class.std::unique_ptr.16", i32, %"class.std::vector.24", %"class.heif::ImageHandle", %"class.heif::Image" }
%"class.OpenImageIO::v3_1_0::ImageInput" = type { ptr, %"class.OpenImageIO::v3_1_0::ImageSpec", %"class.std::unique_ptr" }
%"class.OpenImageIO::v3_1_0::ImageSpec" = type { i32, i32, i32, i32, i32, i32, i32, i32, i32, i32, i32, i32, i32, i32, i32, i32, %"struct.OpenImageIO::v3_1_0::TypeDesc", %"class.std::vector", %"class.std::vector.0", i32, i32, i8, %"class.OpenImageIO::v3_1_0::ParamValueList" }
%"class.std::vector" = type { %"struct.std::_Vector_base" }
%"struct.std::_Vector_base" = type { %"struct.std::_Vector_base<OpenImageIO::v3_1_0::TypeDesc, std::allocator<OpenImageIO::v3_1_0::TypeDesc>>::_Vector_impl" }
%"struct.std::_Vector_base<OpenImageIO::v3_1_0::TypeDesc, std::allocator<OpenImageIO::v3_1_0::TypeDesc>>::_Vector_impl" = type { %"struct.std::_Vector_base<OpenImageIO::v3_1_0::TypeDesc, std::allocator<OpenImageIO::v3_1_0::TypeDesc>>::_Vector_impl_data" }
%"struct.std::_Vector_base<OpenImageIO::v3_1_0::TypeDesc, std::allocator<OpenImageIO::v3_1_0::TypeDesc>>::_Vector_impl_data" = type { ptr, ptr, ptr }
%"class.std::vector.0" = type { %"struct.std::_Vector_base.1" }
%"struct.std::_Vector_base.1" = type { %"struct.std::_Vector_base<std::__cxx11::basic_string<char>, std::allocator<std::__cxx11::basic_string<char>>>::_Vector_impl" }
%"struct.std::_Vector_base<std::__cxx11::basic_string<char>, std::allocator<std::__cxx11::basic_string<char>>>::_Vector_impl" = type { %"struct.std::_Vector_base<std::__cxx11::basic_string<char>, std::allocator<std::__cxx11::basic_string<char>>>::_Vector_impl_data" }
%"struct.std::_Vector_base<std::__cxx11::basic_string<char>, std::allocator<std::__cxx11::basic_string<char>>>::_Vector_impl_data" = type { ptr, ptr, ptr }
%"class.OpenImageIO::v3_1_0::ParamValueList" = type { %"class.std::vector.5" }
%"class.std::vector.5" = type { %"struct.std::_Vector_base.6" }
%"struct.std::_Vector_base.6" = type { %"struct.std::_Vector_base<OpenImageIO::v3_1_0::ParamValue, std::allocator<OpenImageIO::v3_1_0::ParamValue>>::_Vector_impl" }
%"struct.std::_Vector_base<OpenImageIO::v3_1_0::ParamValue, std::allocator<OpenImageIO::v3_1_0::ParamValue>>::_Vector_impl" = type { %"struct.std::_Vector_base<OpenImageIO::v3_1_0::ParamValue, std::allocator<OpenImageIO::v3_1_0::ParamValue>>::_Vector_impl_data" }
%"struct.std::_Vector_base<OpenImageIO::v3_1_0::ParamValue, std::allocator<OpenImageIO::v3_1_0::ParamValue>>::_Vector_impl_data" = type { ptr, ptr, ptr }
%"class.std::unique_ptr" = type { %"struct.std::__uniq_ptr_data" }
%"struct.std::__uniq_ptr_data" = type { %"class.std::__uniq_ptr_impl" }
%"class.std::__uniq_ptr_impl" = type { %"class.std::tuple" }
%"class.std::tuple" = type { %"struct.std::_Tuple_impl" }
%"struct.std::_Tuple_impl" = type { %"struct.std::_Tuple_impl.10", %"struct.std::_Head_base.11" }
%"struct.std::_Tuple_impl.10" = type { %"struct.std::_Head_base" }
%"struct.std::_Head_base" = type { ptr }
%"struct.std::_Head_base.11" = type { ptr }
%"class.std::__cxx11::basic_string" = type { %"struct.std::__cxx11::basic_string<char>::_Alloc_hider", i64, %union.anon.15 }
%"struct.std::__cxx11::basic_string<char>::_Alloc_hider" = type { ptr }
%union.anon.15 = type { i64, [8 x i8] }
%"class.std::unique_ptr.16" = type { %"struct.std::__uniq_ptr_data.17" }
%"struct.std::__uniq_ptr_data.17" = type { %"class.std::__uniq_ptr_impl.18" }
%"class.std::__uniq_ptr_impl.18" = type { %"class.std::tuple.19" }
%"class.std::tuple.19" = type { %"struct.std::_Tuple_impl.20" }
%"struct.std::_Tuple_impl.20" = type { %"struct.std::_Head_base.23" }
%"struct.std::_Head_base.23" = type { ptr }
%"class.std::vector.24" = type { %"struct.std::_Vector_base.25" }
%"struct.std::_Vector_base.25" = type { %"struct.std::_Vector_base<unsigned int, std::allocator<unsigned int>>::_Vector_impl" }
%"struct.std::_Vector_base<unsigned int, std::allocator<unsigned int>>::_Vector_impl" = type { %"struct.std::_Vector_base<unsigned int, std::allocator<unsigned int>>::_Vector_impl_data" }
%"struct.std::_Vector_base<unsigned int, std::allocator<unsigned int>>::_Vector_impl_data" = type { ptr, ptr, ptr }
%"class.heif::ImageHandle" = type { %"class.std::shared_ptr" }
%"class.std::shared_ptr" = type { %"class.std::__shared_ptr" }
%"class.std::__shared_ptr" = type { ptr, %"class.std::__shared_count" }
%"class.std::__shared_count" = type { ptr }
%"class.heif::Image" = type { %"class.std::shared_ptr.29" }
%"class.std::shared_ptr.29" = type { %"class.std::__shared_ptr.30" }
%"class.std::__shared_ptr.30" = type { ptr, %"class.std::__shared_count" }
%"class.std::lock_guard" = type { ptr }

@.str.16 = private unnamed_addr constant [19 x i8] c"Unknown read error\00", align 1

; Function Attrs: mustprogress nounwind uwtable
define linkonce_odr hidden noundef ptr @_ZNKSt12__shared_ptrI10heif_imageLN9__gnu_cxx12_Lock_policyE2EE3getEv(ptr noundef nonnull align 8 dereferenceable(16) %0) #6 comdat align 2 {
  %2 = alloca ptr, align 8
  store ptr %0, ptr %2, align 8, !tbaa !304
  %3 = load ptr, ptr %2, align 8
  %4 = getelementptr inbounds nuw %"class.std::__shared_ptr.30", ptr %3, i32 0, i32 0
  %5 = load ptr, ptr %4, align 8, !tbaa !306
  ret ptr %5
}

; Function Attrs: mustprogress nounwind uwtable
define linkonce_odr void @_ZNSt10lock_guardIRKN11OpenImageIO6v3_1_010ImageInputEED2Ev(ptr noundef nonnull align 8 dereferenceable(8) %0) unnamed_addr #6 comdat align 2 personality ptr @__gxx_personality_v0 {
  %2 = alloca ptr, align 8
  store ptr %0, ptr %2, align 8, !tbaa !183
  %3 = load ptr, ptr %2, align 8
  %4 = getelementptr inbounds nuw %"class.std::lock_guard", ptr %3, i32 0, i32 0
  %5 = load ptr, ptr %4, align 8, !tbaa !185
  invoke void @_ZNK11OpenImageIO6v3_1_010ImageInput6unlockEv(ptr noundef nonnull align 8 dereferenceable(184) %5)
          to label %6 unwind label %7

6:                                                ; preds = %1
  ret void

7:                                                ; preds = %1
  %8 = landingpad { ptr, i32 }
          catch ptr null
  %9 = extractvalue { ptr, i32 } %8, 0
  call void @__clang_call_terminate(ptr %9) #27
  unreachable
}

; Function Attrs: inlinehint mustprogress nounwind uwtable
define linkonce_odr hidden noundef ptr @_ZN4heif5Image9get_planeE12heif_channelPi(ptr noundef nonnull align 8 dereferenceable(16) %0, i32 noundef %1, ptr noundef %2) #4 comdat align 2 personality ptr @__gxx_personality_v0 {
  %4 = alloca ptr, align 8
  %5 = alloca i32, align 4
  %6 = alloca ptr, align 8
  store ptr %0, ptr %4, align 8, !tbaa !116
  store i32 %1, ptr %5, align 4, !tbaa !163
  store ptr %2, ptr %6, align 8, !tbaa !130
  %7 = load ptr, ptr %4, align 8
  %8 = getelementptr inbounds nuw %"class.heif::Image", ptr %7, i32 0, i32 0
  %9 = call noundef ptr @_ZNKSt12__shared_ptrI10heif_imageLN9__gnu_cxx12_Lock_policyE2EE3getEv(ptr noundef nonnull align 8 dereferenceable(16) %8) #3
  %10 = load i32, ptr %5, align 4, !tbaa !163
  %11 = load ptr, ptr %6, align 8, !tbaa !130
  %12 = invoke ptr @heif_image_get_plane(ptr noundef %9, i32 noundef %10, ptr noundef %11)
          to label %13 unwind label %14

13:                                               ; preds = %3
  ret ptr %12

14:                                               ; preds = %3
  %15 = landingpad { ptr, i32 }
          catch ptr null
  %16 = extractvalue { ptr, i32 } %15, 0
  call void @__clang_call_terminate(ptr %16) #27
  unreachable
}

; Function Attrs: mustprogress uwtable
define linkonce_odr void @_ZNSt10lock_guardIRKN11OpenImageIO6v3_1_010ImageInputEEC2ES4_(ptr noundef nonnull align 8 dereferenceable(8) %0, ptr noundef nonnull align 8 dereferenceable(184) %1) unnamed_addr #7 comdat align 2 {
  %3 = alloca ptr, align 8
  %4 = alloca ptr, align 8
  store ptr %0, ptr %3, align 8, !tbaa !183
  store ptr %1, ptr %4, align 8, !tbaa !137
  %5 = load ptr, ptr %3, align 8
  %6 = getelementptr inbounds nuw %"class.std::lock_guard", ptr %5, i32 0, i32 0
  %7 = load ptr, ptr %4, align 8, !tbaa !137
  store ptr %7, ptr %6, align 8, !tbaa !137
  %8 = getelementptr inbounds nuw %"class.std::lock_guard", ptr %5, i32 0, i32 0
  %9 = load ptr, ptr %8, align 8, !tbaa !185
  call void @_ZNK11OpenImageIO6v3_1_010ImageInput4lockEv(ptr noundef nonnull align 8 dereferenceable(184) %9)
  ret void
}

; Function Attrs: mustprogress uwtable
define hidden noundef zeroext i1 @_ZN11OpenImageIO6v3_1_09HeifInput20read_native_scanlineEiiiiPv(ptr noundef nonnull align 8 dereferenceable(304) %0, i32 noundef %1, i32 noundef %2, i32 noundef %3, i32 noundef %4, ptr noundef %5) unnamed_addr #7 align 2 personality ptr @__gxx_personality_v0 {
  %7 = alloca i1, align 1
  %8 = alloca ptr, align 8
  %9 = alloca i32, align 4
  %10 = alloca i32, align 4
  %11 = alloca i32, align 4
  %12 = alloca i32, align 4
  %13 = alloca ptr, align 8
  %14 = alloca %"class.std::lock_guard", align 8
  %15 = alloca ptr, align 8
  %16 = alloca i32, align 4
  %17 = alloca i32, align 4
  %18 = alloca i32, align 4
  %19 = alloca ptr, align 8
  store ptr %0, ptr %8, align 8, !tbaa !8
  store i32 %1, ptr %9, align 4, !tbaa !93
  store i32 %2, ptr %10, align 4, !tbaa !93
  store i32 %3, ptr %11, align 4, !tbaa !93
  store i32 %4, ptr %12, align 4, !tbaa !93
  store ptr %5, ptr %13, align 8, !tbaa !144
  %20 = load ptr, ptr %8, align 8
  call void @llvm.lifetime.start.p0(i64 8, ptr %14) #3
  call void @_ZNSt10lock_guardIRKN11OpenImageIO6v3_1_010ImageInputEEC2ES4_(ptr noundef nonnull align 8 dereferenceable(8) %14, ptr noundef nonnull align 8 dereferenceable(184) %20)
  %21 = load i32, ptr %9, align 4, !tbaa !93
  %22 = load i32, ptr %10, align 4, !tbaa !93
  %23 = invoke noundef zeroext i1 @_ZN11OpenImageIO6v3_1_09HeifInput13seek_subimageEii(ptr noundef nonnull align 8 dereferenceable(304) %20, i32 noundef %21, i32 noundef %22)
          to label %24 unwind label %26

24:                                               ; preds = %6
  br i1 %23, label %30, label %25

25:                                               ; preds = %24
  store i1 false, ptr %7, align 1
  store i32 1, ptr %17, align 4
  br label %72

26:                                               ; preds = %6
  %27 = landingpad { ptr, i32 }
          cleanup
  %28 = extractvalue { ptr, i32 } %27, 0
  store ptr %28, ptr %15, align 8
  %29 = extractvalue { ptr, i32 } %27, 1
  store i32 %29, ptr %16, align 4
  br label %74

30:                                               ; preds = %24
  %31 = load i32, ptr %11, align 4, !tbaa !93
  %32 = icmp slt i32 %31, 0
  br i1 %32, label %39, label %33

33:                                               ; preds = %30
  %34 = load i32, ptr %11, align 4, !tbaa !93
  %35 = getelementptr inbounds nuw %"class.OpenImageIO::v3_1_0::ImageInput", ptr %20, i32 0, i32 1
  %36 = getelementptr inbounds nuw %"class.OpenImageIO::v3_1_0::ImageSpec", ptr %35, i32 0, i32 4
  %37 = load i32, ptr %36, align 8, !tbaa !180
  %38 = icmp sge i32 %34, %37
  br i1 %38, label %39, label %40

39:                                               ; preds = %33, %30
  store i1 false, ptr %7, align 1
  store i32 1, ptr %17, align 4
  br label %72

40:                                               ; preds = %33
  call void @llvm.lifetime.start.p0(i64 4, ptr %18) #3
  store i32 0, ptr %18, align 4, !tbaa !93
  call void @llvm.lifetime.start.p0(i64 8, ptr %19) #3
  %41 = getelementptr inbounds nuw %"class.OpenImageIO::v3_1_0::HeifInput", ptr %20, i32 0, i32 13
  %42 = call noundef ptr @_ZN4heif5Image9get_planeE12heif_channelPi(ptr noundef nonnull align 8 dereferenceable(16) %41, i32 noundef 10, ptr noundef %18) #3
  store ptr %42, ptr %19, align 8, !tbaa !103
  %43 = load ptr, ptr %19, align 8, !tbaa !103
  %44 = icmp ne ptr %43, null
  br i1 %44, label %51, label %45

45:                                               ; preds = %40
  invoke void @_ZNK11OpenImageIO6v3_1_010ImageInput8errorfmtIJEEEvPKcDpRKT_(ptr noundef nonnull align 8 dereferenceable(184) %20, ptr noundef @.str.16)
          to label %46 unwind label %47

46:                                               ; preds = %45
  store i1 false, ptr %7, align 1
  store i32 1, ptr %17, align 4
  br label %71

47:                                               ; preds = %45
  %48 = landingpad { ptr, i32 }
          cleanup
  %49 = extractvalue { ptr, i32 } %48, 0
  store ptr %49, ptr %15, align 8
  %50 = extractvalue { ptr, i32 } %48, 1
  store i32 %50, ptr %16, align 4
  call void @llvm.lifetime.end.p0(i64 8, ptr %19) #3
  call void @llvm.lifetime.end.p0(i64 4, ptr %18) #3
  br label %74

51:                                               ; preds = %40
  %52 = load i32, ptr %11, align 4, !tbaa !93
  %53 = getelementptr inbounds nuw %"class.OpenImageIO::v3_1_0::ImageInput", ptr %20, i32 0, i32 1
  %54 = getelementptr inbounds nuw %"class.OpenImageIO::v3_1_0::ImageSpec", ptr %53, i32 0, i32 1
  %55 = load i32, ptr %54, align 4, !tbaa !181
  %56 = sub nsw i32 %52, %55
  %57 = load i32, ptr %18, align 4, !tbaa !93
  %58 = mul nsw i32 %56, %57
  %59 = load ptr, ptr %19, align 8, !tbaa !103
  %60 = sext i32 %58 to i64
  %61 = getelementptr inbounds i8, ptr %59, i64 %60
  store ptr %61, ptr %19, align 8, !tbaa !103
  %62 = load ptr, ptr %13, align 8, !tbaa !144
  %63 = load ptr, ptr %19, align 8, !tbaa !103
  %64 = getelementptr inbounds nuw %"class.OpenImageIO::v3_1_0::ImageInput", ptr %20, i32 0, i32 1
  %65 = getelementptr inbounds nuw %"class.OpenImageIO::v3_1_0::ImageSpec", ptr %64, i32 0, i32 3
  %66 = load i32, ptr %65, align 4, !tbaa !182
  %67 = sext i32 %66 to i64
  %68 = getelementptr inbounds nuw %"class.OpenImageIO::v3_1_0::ImageInput", ptr %20, i32 0, i32 1
  %69 = call noundef i64 @_ZNK11OpenImageIO6v3_1_09ImageSpec11pixel_bytesEb(ptr noundef nonnull align 8 dereferenceable(160) %68, i1 noundef zeroext false) #3
  %70 = mul i64 %67, %69
  call void @llvm.memcpy.p0.p0.i64(ptr align 1 %62, ptr align 1 %63, i64 %70, i1 false)
  store i1 true, ptr %7, align 1
  store i32 1, ptr %17, align 4
  br label %71

71:                                               ; preds = %51, %46
  call void @llvm.lifetime.end.p0(i64 8, ptr %19) #3
  call void @llvm.lifetime.end.p0(i64 4, ptr %18) #3
  br label %72

72:                                               ; preds = %71, %39, %25
  call void @_ZNSt10lock_guardIRKN11OpenImageIO6v3_1_010ImageInputEED2Ev(ptr noundef nonnull align 8 dereferenceable(8) %14) #3
  call void @llvm.lifetime.end.p0(i64 8, ptr %14) #3
  %73 = load i1, ptr %7, align 1
  ret i1 %73

74:                                               ; preds = %47, %26
  call void @_ZNSt10lock_guardIRKN11OpenImageIO6v3_1_010ImageInputEED2Ev(ptr noundef nonnull align 8 dereferenceable(8) %14) #3
  call void @llvm.lifetime.end.p0(i64 8, ptr %14) #3
  br label %75

75:                                               ; preds = %74
  %76 = load ptr, ptr %15, align 8
  %77 = load i32, ptr %16, align 4
  %78 = insertvalue { ptr, i32 } poison, ptr %76, 0
  %79 = insertvalue { ptr, i32 } %78, i32 %77, 1
  resume { ptr, i32 } %79
}