; Function Attrs: mustprogress uwtable
define hidden noundef zeroext i1 @_ZN11OpenImageIO6v3_1_09HeifInput20read_native_scanlineEiiiiPv(ptr noundef nonnull align 8 dereferenceable(304) %0, i32 noundef %1, i32 noundef %2, i32 noundef %3, i32 %4, ptr noundef writeonly captures(none) %5) unnamed_addr #6 align 2 personality ptr @__gxx_personality_v0 {
  %7 = alloca i32, align 4
  tail call void @_ZNK11OpenImageIO6v3_1_010ImageInput4lockEv(ptr noundef nonnull align 8 dereferenceable(184) %0)
  %8 = invoke noundef zeroext i1 @_ZN11OpenImageIO6v3_1_09HeifInput13seek_subimageEii(ptr noundef nonnull align 8 dereferenceable(304) %0, i32 noundef %1, i32 noundef %2)
          to label %9 unwind label %11

9:                                                ; preds = %6
  %10 = icmp sgt i32 %3, -1
  %or.cond.not = and i1 %10, %8
  br i1 %or.cond.not, label %13, label %41

11:                                               ; preds = %6
  %12 = landingpad { ptr, i32 }
          cleanup
  br label %45

13:                                               ; preds = %9
  %14 = getelementptr inbounds nuw i8, ptr %0, i64 8
  %15 = getelementptr inbounds nuw i8, ptr %0, i64 24
  %16 = load i32, ptr %15, align 8, !tbaa !148
  %.not = icmp slt i32 %3, %16
  br i1 %.not, label %17, label %41

17:                                               ; preds = %13
  call void @llvm.lifetime.start.p0(i64 4, ptr nonnull %7) #28
  store i32 0, ptr %7, align 4, !tbaa !96
  %18 = getelementptr inbounds nuw i8, ptr %0, i64 288
  %19 = load ptr, ptr %18, align 8, !tbaa !133
  %20 = invoke ptr @heif_image_get_plane(ptr noundef %19, i32 noundef 10, ptr noundef nonnull %7)
          to label %_ZN4heif5Image9get_planeE12heif_channelPi.exit unwind label %21

21:                                               ; preds = %17
  %22 = landingpad { ptr, i32 }
          catch ptr null
  %23 = extractvalue { ptr, i32 } %22, 0
  call void @__clang_call_terminate(ptr %23) #31
  unreachable

_ZN4heif5Image9get_planeE12heif_channelPi.exit:   ; preds = %17
  %.not16 = icmp ne ptr %20, null
  br i1 %.not16, label %27, label %24

24:                                               ; preds = %_ZN4heif5Image9get_planeE12heif_channelPi.exit
  invoke void @_ZNK11OpenImageIO6v3_1_010ImageInput8errorfmtIJEEEvPKcDpRKT_(ptr noundef nonnull align 8 dereferenceable(184) %0, ptr noundef nonnull @.str.16)
          to label %40 unwind label %25

25:                                               ; preds = %24
  %26 = landingpad { ptr, i32 }
          cleanup
  call void @llvm.lifetime.end.p0(i64 4, ptr nonnull %7) #28
  br label %45

27:                                               ; preds = %_ZN4heif5Image9get_planeE12heif_channelPi.exit
  %28 = getelementptr inbounds nuw i8, ptr %0, i64 12
  %29 = load i32, ptr %28, align 4, !tbaa !149
  %30 = sub nsw i32 %3, %29
  %31 = load i32, ptr %7, align 4, !tbaa !96
  %32 = mul nsw i32 %30, %31
  %33 = sext i32 %32 to i64
  %34 = getelementptr inbounds i8, ptr %20, i64 %33
  %35 = getelementptr inbounds nuw i8, ptr %0, i64 20
  %36 = load i32, ptr %35, align 4, !tbaa !150
  %37 = sext i32 %36 to i64
  %38 = call noundef i64 @_ZNK11OpenImageIO6v3_1_09ImageSpec11pixel_bytesEb(ptr noundef nonnull align 8 dereferenceable(160) %14, i1 noundef zeroext false) #28
  %39 = mul i64 %38, %37
  call void @llvm.memcpy.p0.p0.i64(ptr align 1 %5, ptr nonnull align 1 %34, i64 %39, i1 false)
  br label %40

40:                                               ; preds = %24, %27
  call void @llvm.lifetime.end.p0(i64 4, ptr nonnull %7) #28
  br label %41

41:                                               ; preds = %13, %9, %40
  %.013 = phi i1 [ %.not16, %40 ], [ false, %9 ], [ false, %13 ]
  invoke void @_ZNK11OpenImageIO6v3_1_010ImageInput6unlockEv(ptr noundef nonnull align 8 dereferenceable(184) %0)
          to label %_ZNSt10lock_guardIRKN11OpenImageIO6v3_1_010ImageInputEED2Ev.exit unwind label %42

42:                                               ; preds = %41
  %43 = landingpad { ptr, i32 }
          catch ptr null
  %44 = extractvalue { ptr, i32 } %43, 0
  call void @__clang_call_terminate(ptr %44) #31
  unreachable

_ZNSt10lock_guardIRKN11OpenImageIO6v3_1_010ImageInputEED2Ev.exit: ; preds = %41
  ret i1 %.013

45:                                               ; preds = %25, %11
  %.pn = phi { ptr, i32 } [ %26, %25 ], [ %12, %11 ]
  invoke void @_ZNK11OpenImageIO6v3_1_010ImageInput6unlockEv(ptr noundef nonnull align 8 dereferenceable(184) %0)
          to label %_ZNSt10lock_guardIRKN11OpenImageIO6v3_1_010ImageInputEED2Ev.exit19 unwind label %46

46:                                               ; preds = %45
  %47 = landingpad { ptr, i32 }
          catch ptr null
  %48 = extractvalue { ptr, i32 } %47, 0
  call void @__clang_call_terminate(ptr %48) #31
  unreachable

_ZNSt10lock_guardIRKN11OpenImageIO6v3_1_010ImageInputEED2Ev.exit19: ; preds = %45
  resume { ptr, i32 } %.pn
}